; ModuleID = '10/2341.c'
source_filename = "10/2341.c"
target datalayout = "e-m:e-p270:32:32-p271:32:32-p272:64:64-i64:64-f80:128-n8:16:32:64-S128"
target triple = "x86_64-pc-linux-gnu"

@.str = private unnamed_addr constant [3 x i8] c"%d\00", align 1
@.str.1 = private unnamed_addr constant [4 x i8] c"%d\0A\00", align 1

; Function Attrs: noinline nounwind uwtable
define dso_local i32 @main() #0 {
  %1 = alloca i32, align 4
  %2 = alloca i32, align 4
  %3 = alloca i32, align 4
  %4 = alloca i32, align 4
  %5 = alloca [25 x i32], align 16
  %6 = alloca i8*, align 8
  %7 = alloca i64, align 8
  %8 = alloca i32, align 4
  %9 = alloca i32, align 4
  %10 = alloca i32, align 4
  store i32 0, i32* %1, align 4
  %11 = call i32 (i8*, ...) @__isoc99_scanf(i8* getelementptr inbounds ([3 x i8], [3 x i8]* @.str, i64 0, i64 0), i32* %2)
  %12 = load i32, i32* %2, align 4
  %13 = zext i32 %12 to i64
  %14 = call i8* @llvm.stacksave()
  store i8* %14, i8** %6, align 8
  %15 = alloca i32, i64 %13, align 16
  store i64 %13, i64* %7, align 8
  store i32 0, i32* %4, align 4
  br label %16

16:                                               ; preds = %28, %0
  %17 = load i32, i32* %4, align 4
  %18 = load i32, i32* %2, align 4
  %19 = icmp slt i32 %17, %18
  br i1 %19, label %20, label %31

20:                                               ; preds = %16
  %21 = load i32, i32* %4, align 4
  %22 = sext i32 %21 to i64
  %23 = getelementptr inbounds [25 x i32], [25 x i32]* %5, i64 0, i64 %22
  %24 = call i32 (i8*, ...) @__isoc99_scanf(i8* getelementptr inbounds ([3 x i8], [3 x i8]* @.str, i64 0, i64 0), i32* %23)
  %25 = load i32, i32* %4, align 4
  %26 = sext i32 %25 to i64
  %27 = getelementptr inbounds i32, i32* %15, i64 %26
  store i32 1, i32* %27, align 4
  br label %28

28:                                               ; preds = %20
  %29 = load i32, i32* %4, align 4
  %30 = add nsw i32 %29, 1
  store i32 %30, i32* %4, align 4
  br label %16

31:                                               ; preds = %16
  %32 = load i32, i32* %2, align 4
  %33 = sub nsw i32 %32, 2
  store i32 %33, i32* %8, align 4
  br label %34

34:                                               ; preds = %78, %31
  %35 = load i32, i32* %8, align 4
  %36 = icmp sge i32 %35, 0
  br i1 %36, label %37, label %81

37:                                               ; preds = %34
  %38 = load i32, i32* %8, align 4
  %39 = add nsw i32 %38, 1
  store i32 %39, i32* %9, align 4
  br label %40

40:                                               ; preds = %74, %37
  %41 = load i32, i32* %9, align 4
  %42 = load i32, i32* %2, align 4
  %43 = icmp slt i32 %41, %42
  br i1 %43, label %44, label %77

44:                                               ; preds = %40
  %45 = load i32, i32* %9, align 4
  %46 = sext i32 %45 to i64
  %47 = getelementptr inbounds [25 x i32], [25 x i32]* %5, i64 0, i64 %46
  %48 = load i32, i32* %47, align 4
  %49 = load i32, i32* %8, align 4
  %50 = sext i32 %49 to i64
  %51 = getelementptr inbounds [25 x i32], [25 x i32]* %5, i64 0, i64 %50
  %52 = load i32, i32* %51, align 4
  %53 = icmp sle i32 %48, %52
  br i1 %53, label %54, label %73

54:                                               ; preds = %44
  %55 = load i32, i32* %8, align 4
  %56 = sext i32 %55 to i64
  %57 = getelementptr inbounds i32, i32* %15, i64 %56
  %58 = load i32, i32* %57, align 4
  %59 = load i32, i32* %9, align 4
  %60 = sext i32 %59 to i64
  %61 = getelementptr inbounds i32, i32* %15, i64 %60
  %62 = load i32, i32* %61, align 4
  %63 = icmp sle i32 %58, %62
  br i1 %63, label %64, label %73

64:                                               ; preds = %54
  %65 = load i32, i32* %9, align 4
  %66 = sext i32 %65 to i64
  %67 = getelementptr inbounds i32, i32* %15, i64 %66
  %68 = load i32, i32* %67, align 4
  %69 = add nsw i32 %68, 1
  %70 = load i32, i32* %8, align 4
  %71 = sext i32 %70 to i64
  %72 = getelementptr inbounds i32, i32* %15, i64 %71
  store i32 %69, i32* %72, align 4
  br label %73

73:                                               ; preds = %64, %54, %44
  br label %74

74:                                               ; preds = %73
  %75 = load i32, i32* %9, align 4
  %76 = add nsw i32 %75, 1
  store i32 %76, i32* %9, align 4
  br label %40

77:                                               ; preds = %40
  br label %78

78:                                               ; preds = %77
  %79 = load i32, i32* %8, align 4
  %80 = add nsw i32 %79, -1
  store i32 %80, i32* %8, align 4
  br label %34

81:                                               ; preds = %34
  store i32 0, i32* %3, align 4
  store i32 0, i32* %10, align 4
  br label %82

82:                                               ; preds = %99, %81
  %83 = load i32, i32* %10, align 4
  %84 = load i32, i32* %2, align 4
  %85 = icmp slt i32 %83, %84
  br i1 %85, label %86, label %102

86:                                               ; preds = %82
  %87 = load i32, i32* %10, align 4
  %88 = sext i32 %87 to i64
  %89 = getelementptr inbounds i32, i32* %15, i64 %88
  %90 = load i32, i32* %89, align 4
  %91 = load i32, i32* %3, align 4
  %92 = icmp sgt i32 %90, %91
  br i1 %92, label %93, label %98

93:                                               ; preds = %86
  %94 = load i32, i32* %10, align 4
  %95 = sext i32 %94 to i64
  %96 = getelementptr inbounds i32, i32* %15, i64 %95
  %97 = load i32, i32* %96, align 4
  store i32 %97, i32* %3, align 4
  br label %98

98:                                               ; preds = %93, %86
  br label %99

99:                                               ; preds = %98
  %100 = load i32, i32* %10, align 4
  %101 = add nsw i32 %100, 1
  store i32 %101, i32* %10, align 4
  br label %82

102:                                              ; preds = %82
  %103 = load i32, i32* %3, align 4
  %104 = call i32 (i8*, ...) @printf(i8* getelementptr inbounds ([4 x i8], [4 x i8]* @.str.1, i64 0, i64 0), i32 %103)
  %105 = load i8*, i8** %6, align 8
  call void @llvm.stackrestore(i8* %105)
  %106 = load i32, i32* %1, align 4
  ret i32 %106
}

declare dso_local i32 @__isoc99_scanf(i8*, ...) #1

; Function Attrs: nounwind
declare i8* @llvm.stacksave() #2

declare dso_local i32 @printf(i8*, ...) #1

; Function Attrs: nounwind
declare void @llvm.stackrestore(i8*) #2


!llvm.module.flags = !{!0}
!llvm.ident = !{!1}

!0 = !{i32 1, !"wchar_size", i32 4}
!1 = !{!"clang version 10.0.0-4ubuntu1 "}
